; Function Attrs: mustprogress uwtable
define hidden void @_Z6prexprR7obj_refI4expr11ast_managerE(ptr noundef nonnull readonly align 8 captures(none) dereferenceable(16) %0) local_unnamed_addr #7 personality ptr @__gxx_personality_v0 {
  %2 = alloca %struct.mk_pp, align 8
  call void @llvm.lifetime.start.p0(i64 48, ptr nonnull %2) #38
  %3 = load ptr, ptr %0, align 8, !tbaa !536
  %4 = getelementptr inbounds nuw i8, ptr %0, i64 8
  %5 = load ptr, ptr %4, align 8, !tbaa !538
  call void @_ZN11mk_ismt2_ppC2EP3astR11ast_managerjjPKc(ptr noundef nonnull align 8 dereferenceable(48) %2, ptr noundef %3, ptr noundef nonnull align 8 dereferenceable(976) %5, i32 noundef 0, i32 noundef 0, ptr noundef null)
  %6 = invoke noundef nonnull align 8 dereferenceable(8) ptr @_ZlsRSoRK11mk_ismt2_pp(ptr noundef nonnull align 8 dereferenceable(8) @_ZSt4cout, ptr noundef nonnull align 8 dereferenceable(48) %2)
          to label %7 unwind label %28

7:                                                ; preds = %1
  %8 = load ptr, ptr %6, align 8, !tbaa !39
  %9 = getelementptr i8, ptr %8, i64 -24
  %10 = load i64, ptr %9, align 8
  %11 = getelementptr inbounds i8, ptr %6, i64 %10
  %12 = getelementptr inbounds nuw i8, ptr %11, i64 240
  %13 = load ptr, ptr %12, align 8, !tbaa !553
  %.not.i.i.i = icmp eq ptr %13, null
  br i1 %.not.i.i.i, label %14, label %_ZSt13__check_facetISt5ctypeIcEERKT_PS3_.exit.i.i

14:                                               ; preds = %7
  invoke void @_ZSt16__throw_bad_castv() #40
          to label %.noexc unwind label %28

.noexc:                                           ; preds = %14
  unreachable

_ZSt13__check_facetISt5ctypeIcEERKT_PS3_.exit.i.i: ; preds = %7
  %15 = getelementptr inbounds nuw i8, ptr %13, i64 56
  %16 = load i8, ptr %15, align 8, !tbaa !560
  %.not.i1.i.i = icmp eq i8 %16, 0
  br i1 %.not.i1.i.i, label %20, label %17

17:                                               ; preds = %_ZSt13__check_facetISt5ctypeIcEERKT_PS3_.exit.i.i
  %18 = getelementptr inbounds nuw i8, ptr %13, i64 67
  %19 = load i8, ptr %18, align 1, !tbaa !60
  br label %_ZNKSt9basic_iosIcSt11char_traitsIcEE5widenEc.exit.i

20:                                               ; preds = %_ZSt13__check_facetISt5ctypeIcEERKT_PS3_.exit.i.i
  invoke void @_ZNKSt5ctypeIcE13_M_widen_initEv(ptr noundef nonnull align 8 dereferenceable(570) %13)
          to label %.noexc3 unwind label %28

.noexc3:                                          ; preds = %20
  %21 = load ptr, ptr %13, align 8, !tbaa !39
  %22 = getelementptr inbounds nuw i8, ptr %21, i64 48
  %23 = load ptr, ptr %22, align 8
  %24 = invoke noundef signext i8 %23(ptr noundef nonnull align 8 dereferenceable(570) %13, i8 noundef signext 10)
          to label %_ZNKSt9basic_iosIcSt11char_traitsIcEE5widenEc.exit.i unwind label %28

_ZNKSt9basic_iosIcSt11char_traitsIcEE5widenEc.exit.i: ; preds = %.noexc3, %17
  %.0.i.i.i = phi i8 [ %19, %17 ], [ %24, %.noexc3 ]
  %25 = invoke noundef nonnull align 8 dereferenceable(8) ptr @_ZNSo3putEc(ptr noundef nonnull align 8 dereferenceable(8) %6, i8 noundef signext %.0.i.i.i)
          to label %.noexc5 unwind label %28

.noexc5:                                          ; preds = %_ZNKSt9basic_iosIcSt11char_traitsIcEE5widenEc.exit.i
  %26 = invoke noundef nonnull align 8 dereferenceable(8) ptr @_ZNSo5flushEv(ptr noundef nonnull align 8 dereferenceable(8) %25)
          to label %_ZNSolsEPFRSoS_E.exit unwind label %28

_ZNSolsEPFRSoS_E.exit:                            ; preds = %.noexc5
  %27 = getelementptr inbounds nuw i8, ptr %2, i64 16
  call void @_ZN10params_refD1Ev(ptr noundef nonnull align 8 dereferenceable(8) %27) #38
  call void @llvm.lifetime.end.p0(i64 48, ptr nonnull %2) #38
  ret void

28:                                               ; preds = %.noexc5, %_ZNKSt9basic_iosIcSt11char_traitsIcEE5widenEc.exit.i, %.noexc3, %20, %14, %1
  %29 = landingpad { ptr, i32 }
          cleanup
  %30 = getelementptr inbounds nuw i8, ptr %2, i64 16
  call void @_ZN10params_refD1Ev(ptr noundef nonnull align 8 dereferenceable(8) %30) #38
  call void @llvm.lifetime.end.p0(i64 48, ptr nonnull %2) #38
  resume { ptr, i32 } %29
}